target datalayout = "e-m:e-p270:32:32-p271:32:32-p272:64:64-i64:64-i128:128-f80:128-n8:16:32:64-S128"
target triple = "x86_64-pc-linux-gnu"

%struct.Qureg = type { i32, i32, i32, i64, i64, i32, i32, %struct.ComplexArray, %struct.ComplexArray, %struct.ComplexArray, ptr, ptr, ptr, ptr, ptr, ptr }
%struct.ComplexArray = type { ptr, ptr }
%struct.ComplexMatrix2 = type { [2 x [2 x double]], [2 x [2 x double]] }

@__func__.multiStateControlledUnitary = private unnamed_addr constant [28 x i8] c"multiStateControlledUnitary\00", align 1

; Function Attrs: nounwind uwtable
define void @multiStateControlledUnitary(ptr noundef byval(%struct.Qureg) align 8 %0, ptr noundef %1, ptr noundef %2, i32 noundef %3, i32 noundef %4, ptr noundef byval(%struct.ComplexMatrix2) align 8 %5) #0 {
  %7 = alloca ptr, align 8
  %8 = alloca ptr, align 8
  %9 = alloca i32, align 4
  %10 = alloca i32, align 4
  %11 = alloca i64, align 8
  %12 = alloca i64, align 8
  %13 = alloca i32, align 4
  %14 = alloca %struct.ComplexMatrix2, align 8
  store ptr %1, ptr %7, align 8, !tbaa !27
  store ptr %2, ptr %8, align 8, !tbaa !27
  store i32 %3, ptr %9, align 4, !tbaa !4
  store i32 %4, ptr %10, align 4, !tbaa !4
  %15 = load ptr, ptr %7, align 8, !tbaa !27
  %16 = load i32, ptr %9, align 4, !tbaa !4
  %17 = load i32, ptr %10, align 4, !tbaa !4
  call void @validateMultiControlsTarget(ptr noundef byval(%struct.Qureg) align 8 %0, ptr noundef %15, i32 noundef %16, i32 noundef %17, ptr noundef @__func__.multiStateControlledUnitary)
  call void @validateOneQubitUnitaryMatrix(ptr noundef byval(%struct.ComplexMatrix2) align 8 %5, ptr noundef @__func__.multiStateControlledUnitary)
  %18 = load ptr, ptr %8, align 8, !tbaa !27
  %19 = load i32, ptr %9, align 4, !tbaa !4
  call void @validateControlState(ptr noundef %18, i32 noundef %19, ptr noundef @__func__.multiStateControlledUnitary)
  call void @llvm.lifetime.start.p0(i64 8, ptr %11) #7
  %20 = load ptr, ptr %7, align 8, !tbaa !27
  %21 = load i32, ptr %9, align 4, !tbaa !4
  %22 = call i64 @getQubitBitMask(ptr noundef %20, i32 noundef %21)
  store i64 %22, ptr %11, align 8, !tbaa !22
  call void @llvm.lifetime.start.p0(i64 8, ptr %12) #7
  %23 = load ptr, ptr %7, align 8, !tbaa !27
  %24 = load ptr, ptr %8, align 8, !tbaa !27
  %25 = load i32, ptr %9, align 4, !tbaa !4
  %26 = call i64 @getControlFlipMask(ptr noundef %23, ptr noundef %24, i32 noundef %25)
  store i64 %26, ptr %12, align 8, !tbaa !22
  %27 = load i64, ptr %11, align 8, !tbaa !22
  %28 = load i64, ptr %12, align 8, !tbaa !22
  %29 = load i32, ptr %10, align 4, !tbaa !4
  call void @statevec_multiControlledUnitary(ptr noundef byval(%struct.Qureg) align 8 %0, i64 noundef %27, i64 noundef %28, i32 noundef %29, ptr noundef byval(%struct.ComplexMatrix2) align 8 %5)
  %30 = getelementptr inbounds nuw %struct.Qureg, ptr %0, i32 0, i32 0
  %31 = load i32, ptr %30, align 8, !tbaa !13
  %32 = icmp ne i32 %31, 0
  br i1 %32, label %33, label %47

33:                                               ; preds = %6
  call void @llvm.lifetime.start.p0(i64 4, ptr %13) #7
  %34 = getelementptr inbounds nuw %struct.Qureg, ptr %0, i32 0, i32 1
  %35 = load i32, ptr %34, align 4, !tbaa !18
  store i32 %35, ptr %13, align 4, !tbaa !4
  %36 = load i64, ptr %11, align 8, !tbaa !22
  %37 = load i32, ptr %13, align 4, !tbaa !4
  %38 = zext i32 %37 to i64
  %39 = shl i64 %36, %38
  %40 = load i64, ptr %12, align 8, !tbaa !22
  %41 = load i32, ptr %13, align 4, !tbaa !4
  %42 = zext i32 %41 to i64
  %43 = shl i64 %40, %42
  %44 = load i32, ptr %10, align 4, !tbaa !4
  %45 = load i32, ptr %13, align 4, !tbaa !4
  %46 = add nsw i32 %44, %45
  call void @getConjugateMatrix2(ptr dead_on_unwind writable sret(%struct.ComplexMatrix2) align 8 %14, ptr noundef byval(%struct.ComplexMatrix2) align 8 %5)
  call void @statevec_multiControlledUnitary(ptr noundef byval(%struct.Qureg) align 8 %0, i64 noundef %39, i64 noundef %43, i32 noundef %46, ptr noundef byval(%struct.ComplexMatrix2) align 8 %14)
  call void @llvm.lifetime.end.p0(i64 4, ptr %13) #7
  br label %47

47:                                               ; preds = %33, %6
  %48 = load ptr, ptr %7, align 8, !tbaa !27
  %49 = load ptr, ptr %8, align 8, !tbaa !27
  %50 = load i32, ptr %9, align 4, !tbaa !4
  %51 = load i32, ptr %10, align 4, !tbaa !4
  call void @qasm_recordMultiStateControlledUnitary(ptr noundef byval(%struct.Qureg) align 8 %0, ptr noundef byval(%struct.ComplexMatrix2) align 8 %5, ptr noundef %48, ptr noundef %49, i32 noundef %50, i32 noundef %51)
  call void @llvm.lifetime.end.p0(i64 8, ptr %12) #7
  call void @llvm.lifetime.end.p0(i64 8, ptr %11) #7
  ret void
}