; Function Attrs: nounwind uwtable
define void @multiStateControlledUnitary(ptr noundef readonly byval(%struct.Qureg) align 8 captures(none) %0, ptr noundef %1, ptr noundef %2, i32 noundef %3, i32 noundef %4, ptr noundef readonly byval(%struct.ComplexMatrix2) align 8 captures(none) %5) local_unnamed_addr #0 {
  %7 = alloca %struct.ComplexMatrix2, align 8
  tail call void @validateMultiControlsTarget(ptr noundef nonnull byval(%struct.Qureg) align 8 %0, ptr noundef %1, i32 noundef %3, i32 noundef %4, ptr noundef nonnull @__func__.multiStateControlledUnitary) #17
  tail call void @validateOneQubitUnitaryMatrix(ptr noundef nonnull byval(%struct.ComplexMatrix2) align 8 %5, ptr noundef nonnull @__func__.multiStateControlledUnitary) #17
  tail call void @validateControlState(ptr noundef %2, i32 noundef %3, ptr noundef nonnull @__func__.multiStateControlledUnitary) #17
  %8 = tail call i64 @getQubitBitMask(ptr noundef %1, i32 noundef %3) #17
  %9 = tail call i64 @getControlFlipMask(ptr noundef %1, ptr noundef %2, i32 noundef %3) #17
  tail call void @statevec_multiControlledUnitary(ptr noundef nonnull byval(%struct.Qureg) align 8 %0, i64 noundef %8, i64 noundef %9, i32 noundef %4, ptr noundef nonnull byval(%struct.ComplexMatrix2) align 8 %5) #17
  %10 = load i32, ptr %0, align 8, !tbaa !12
  %.not = icmp eq i32 %10, 0
  br i1 %.not, label %18, label %11

11:                                               ; preds = %6
  %12 = getelementptr inbounds nuw i8, ptr %0, i64 4
  %13 = load i32, ptr %12, align 4, !tbaa !17
  %14 = zext i32 %13 to i64
  %15 = shl i64 %8, %14
  %16 = shl i64 %9, %14
  %17 = add nsw i32 %13, %4
  call void @getConjugateMatrix2(ptr dead_on_unwind nonnull writable sret(%struct.ComplexMatrix2) align 8 %7, ptr noundef nonnull byval(%struct.ComplexMatrix2) align 8 %5) #17
  call void @statevec_multiControlledUnitary(ptr noundef nonnull byval(%struct.Qureg) align 8 %0, i64 noundef %15, i64 noundef %16, i32 noundef %17, ptr noundef nonnull byval(%struct.ComplexMatrix2) align 8 %7) #17
  br label %18

18:                                               ; preds = %11, %6
  call void @qasm_recordMultiStateControlledUnitary(ptr noundef nonnull byval(%struct.Qureg) align 8 %0, ptr noundef nonnull byval(%struct.ComplexMatrix2) align 8 %5, ptr noundef %1, ptr noundef %2, i32 noundef %3, i32 noundef %4) #17
  ret void
}